; Function Attrs: mustprogress nounwind uwtable
define internal fastcc void @_ZNSt4pairIN5Yosys5RTLIL8IdStringESt6vectorIN12_GLOBAL__N_17rules_t6bram_tESaIS6_EEED2Ev(ptr nocapture noundef nonnull readonly align 8 dereferenceable(32) %0) unnamed_addr #3 align 2 personality ptr @__gxx_personality_v0 {
  %2 = getelementptr inbounds i8, ptr %0, i64 8
  %3 = load ptr, ptr %2, align 8
  %4 = getelementptr inbounds i8, ptr %0, i64 16
  %5 = load ptr, ptr %4, align 8
  %.not4.i.i.i.i = icmp eq ptr %3, %5
  br i1 %.not4.i.i.i.i, label %_ZSt8_DestroyIPN12_GLOBAL__N_17rules_t6bram_tES2_EvT_S4_RSaIT0_E.exit.i, label %.lr.ph.i.i.i.i

.lr.ph.i.i.i.i:                                   ; preds = %1, %.lr.ph.i.i.i.i
  %.05.i.i.i.i = phi ptr [ %6, %.lr.ph.i.i.i.i ], [ %3, %1 ]
  tail call fastcc void @_ZN12_GLOBAL__N_17rules_t6bram_tD2Ev(ptr noundef nonnull align 8 dereferenceable(168) %.05.i.i.i.i) #24
  %6 = getelementptr inbounds i8, ptr %.05.i.i.i.i, i64 168
  %.not.i.i.i.i = icmp eq ptr %6, %5
  br i1 %.not.i.i.i.i, label %_ZSt8_DestroyIPN12_GLOBAL__N_17rules_t6bram_tES2_EvT_S4_RSaIT0_E.exitthread-pre-split.i, label %.lr.ph.i.i.i.i, !llvm.loop !19

_ZSt8_DestroyIPN12_GLOBAL__N_17rules_t6bram_tES2_EvT_S4_RSaIT0_E.exitthread-pre-split.i: ; preds = %.lr.ph.i.i.i.i
  %.val.pr.i = load ptr, ptr %2, align 8
  br label %_ZSt8_DestroyIPN12_GLOBAL__N_17rules_t6bram_tES2_EvT_S4_RSaIT0_E.exit.i

_ZSt8_DestroyIPN12_GLOBAL__N_17rules_t6bram_tES2_EvT_S4_RSaIT0_E.exit.i: ; preds = %_ZSt8_DestroyIPN12_GLOBAL__N_17rules_t6bram_tES2_EvT_S4_RSaIT0_E.exitthread-pre-split.i, %1
  %.val.i = phi ptr [ %.val.pr.i, %_ZSt8_DestroyIPN12_GLOBAL__N_17rules_t6bram_tES2_EvT_S4_RSaIT0_E.exitthread-pre-split.i ], [ %3, %1 ]
  %.not.i.i.i = icmp eq ptr %.val.i, null
  br i1 %.not.i.i.i, label %_ZNSt6vectorIN12_GLOBAL__N_17rules_t6bram_tESaIS2_EED2Ev.exit, label %7

7:                                                ; preds = %_ZSt8_DestroyIPN12_GLOBAL__N_17rules_t6bram_tES2_EvT_S4_RSaIT0_E.exit.i
  tail call void @_ZdlPv(ptr noundef nonnull %.val.i) #25
  br label %_ZNSt6vectorIN12_GLOBAL__N_17rules_t6bram_tESaIS2_EED2Ev.exit

_ZNSt6vectorIN12_GLOBAL__N_17rules_t6bram_tESaIS2_EED2Ev.exit: ; preds = %_ZSt8_DestroyIPN12_GLOBAL__N_17rules_t6bram_tES2_EvT_S4_RSaIT0_E.exit.i, %7
  %8 = load i32, ptr %0, align 8
  %9 = load i8, ptr @_ZN5Yosys5RTLIL8IdString17destruct_guard_okE, align 1
  %10 = and i8 %9, 1
  %11 = icmp ne i8 %10, 0
  %12 = icmp ne i32 %8, 0
  %or.cond.i.i = and i1 %12, %11
  br i1 %or.cond.i.i, label %13, label %_ZN5Yosys5RTLIL8IdStringD2Ev.exit

13:                                               ; preds = %_ZNSt6vectorIN12_GLOBAL__N_17rules_t6bram_tESaIS2_EED2Ev.exit
  %14 = sext i32 %8 to i64
  %15 = load ptr, ptr @_ZN5Yosys5RTLIL8IdString24global_refcount_storage_E, align 8
  %16 = getelementptr inbounds i32, ptr %15, i64 %14
  %17 = load i32, ptr %16, align 4
  %18 = add nsw i32 %17, -1
  store i32 %18, ptr %16, align 4
  %19 = icmp sgt i32 %17, 1
  br i1 %19, label %_ZN5Yosys5RTLIL8IdStringD2Ev.exit, label %20

20:                                               ; preds = %13
  invoke void @_ZN5Yosys5RTLIL8IdString14free_referenceEi(i32 noundef %8)
          to label %_ZN5Yosys5RTLIL8IdStringD2Ev.exit unwind label %21

21:                                               ; preds = %20
  %22 = landingpad { ptr, i32 }
          catch ptr null
  %23 = extractvalue { ptr, i32 } %22, 0
  tail call void @__clang_call_terminate(ptr %23) #28
  unreachable

_ZN5Yosys5RTLIL8IdStringD2Ev.exit:                ; preds = %_ZNSt6vectorIN12_GLOBAL__N_17rules_t6bram_tESaIS2_EED2Ev.exit, %13, %20
  ret void
}